; Function Attrs: nounwind uwtable
define hidden void @zim_SQLite3_enableExceptions(ptr noundef readonly captures(none) %0, ptr noundef writeonly captures(none) %1) #0 {
  %3 = alloca i8, align 1
  %4 = getelementptr inbounds nuw i8, ptr %0, i64 32
  call void @llvm.lifetime.start.p0(i64 1, ptr nonnull %3) #17
  store i8 0, ptr %3, align 1, !tbaa !80
  %5 = load ptr, ptr %4, align 8, !tbaa !8
  %6 = getelementptr inbounds nuw i8, ptr %0, i64 44
  %7 = load i32, ptr %6, align 4, !tbaa !8
  %8 = call i32 (i32, ptr, ...) @zend_parse_parameters(i32 noundef %7, ptr noundef nonnull @.str.12, ptr noundef nonnull %3) #17
  %9 = icmp eq i32 %8, -1
  br i1 %9, label %10, label %13

10:                                               ; preds = %2
  %11 = load ptr, ptr getelementptr inbounds nuw (i8, ptr @executor_globals, i64 960), align 8, !tbaa !9
  %12 = icmp ne ptr %11, null
  call void @llvm.assume(i1 %12)
  br label %24

13:                                               ; preds = %2
  %14 = getelementptr inbounds i8, ptr %5, i64 -127
  %15 = load i8, ptr %14, align 1, !tbaa !78, !range !55, !noundef !56
  %16 = trunc nuw i8 %15 to i1
  %17 = select i1 %16, i32 3, i32 2
  %18 = getelementptr inbounds nuw i8, ptr %1, i64 8
  store i32 %17, ptr %18, align 8, !tbaa !8
  %19 = load i8, ptr %3, align 1, !tbaa !80, !range !55, !noundef !56
  %20 = trunc nuw i8 %19 to i1
  br i1 %20, label %22, label %21

21:                                               ; preds = %13
  call void (ptr, i32, ptr, ...) @php_error_docref(ptr noundef nonnull @.str.32, i32 noundef 8192, ptr noundef nonnull @.str.33) #17
  %.pre = load i8, ptr %3, align 1, !tbaa !80, !range !55
  br label %22

22:                                               ; preds = %21, %13
  %23 = phi i8 [ %.pre, %21 ], [ 1, %13 ]
  store i8 %23, ptr %14, align 1, !tbaa !78
  br label %24

24:                                               ; preds = %22, %10
  call void @llvm.lifetime.end.p0(i64 1, ptr nonnull %3) #17
  ret void
}